target datalayout = "e-m:e-p270:32:32-p271:32:32-p272:64:64-i64:64-i128:128-f80:128-n8:16:32:64-S128"
target triple = "x86_64-pc-linux-gnu"

%struct.cpuiddump = type { i32, ptr }
%struct.cpuiddump_entry = type { i32, i32, i32, i32, i32, i32, i32, i32, i32 }

@stderr = external global ptr, align 8
@.str.8 = private unnamed_addr constant [73 x i8] c"hwloc/x86: Failed to allocate cpuiddump for PU #%u, ignoring cpuiddump.\0A\00", align 1
@.str.9 = private unnamed_addr constant [8 x i8] c"%s/pu%u\00", align 1
@.str.10 = private unnamed_addr constant [2 x i8] c"r\00", align 1
@.str.11 = private unnamed_addr constant [69 x i8] c"hwloc/x86: Could not read dumped cpuid file %s, ignoring cpuiddump.\0A\00", align 1
@.str.12 = private unnamed_addr constant [84 x i8] c"hwloc/x86: Failed to allocate %u cpuiddump entries for PU #%u, ignoring cpuiddump.\0A\00", align 1
@.str.13 = private unnamed_addr constant [30 x i8] c"%x %x %x %x %x => %x %x %x %x\00", align 1

; Function Attrs: nounwind uwtable
define internal ptr @cpuiddump_read(ptr noundef %0, i32 noundef %1) #0 {
  %3 = alloca ptr, align 8
  %4 = alloca ptr, align 8
  %5 = alloca i32, align 4
  %6 = alloca ptr, align 8
  %7 = alloca ptr, align 8
  %8 = alloca i64, align 8
  %9 = alloca ptr, align 8
  %10 = alloca ptr, align 8
  %11 = alloca [128 x i8], align 16
  %12 = alloca i32, align 4
  %13 = alloca i32, align 4
  store ptr %0, ptr %4, align 8, !tbaa !34
  store i32 %1, ptr %5, align 4, !tbaa !10
  call void @llvm.lifetime.start.p0(i64 8, ptr %6) #15
  call void @llvm.lifetime.start.p0(i64 8, ptr %7) #15
  call void @llvm.lifetime.start.p0(i64 8, ptr %8) #15
  call void @llvm.lifetime.start.p0(i64 8, ptr %9) #15
  call void @llvm.lifetime.start.p0(i64 8, ptr %10) #15
  call void @llvm.lifetime.start.p0(i64 128, ptr %11) #15
  call void @llvm.lifetime.start.p0(i64 4, ptr %12) #15
  %14 = call noalias ptr @malloc(i64 noundef 16) #17
  store ptr %14, ptr %6, align 8, !tbaa !88
  %15 = load ptr, ptr %6, align 8, !tbaa !88
  %16 = icmp ne ptr %15, null
  br i1 %16, label %21, label %17

17:                                               ; preds = %2
  %18 = load ptr, ptr @stderr, align 8, !tbaa !38
  %19 = load i32, ptr %5, align 4, !tbaa !10
  %20 = call i32 (ptr, ptr, ...) @fprintf(ptr noundef %18, ptr noundef @.str.8, i32 noundef %19) #15
  br label %130

21:                                               ; preds = %2
  %22 = load ptr, ptr %4, align 8, !tbaa !34
  %23 = call i64 @strlen(ptr noundef %22) #16
  %24 = add i64 %23, 15
  store i64 %24, ptr %8, align 8, !tbaa !43
  %25 = load i64, ptr %8, align 8, !tbaa !43
  %26 = call noalias ptr @malloc(i64 noundef %25) #17
  store ptr %26, ptr %9, align 8, !tbaa !34
  %27 = load ptr, ptr %9, align 8, !tbaa !34
  %28 = icmp ne ptr %27, null
  br i1 %28, label %30, label %29

29:                                               ; preds = %21
  br label %128

30:                                               ; preds = %21
  %31 = load ptr, ptr %9, align 8, !tbaa !34
  %32 = load i64, ptr %8, align 8, !tbaa !43
  %33 = load ptr, ptr %4, align 8, !tbaa !34
  %34 = load i32, ptr %5, align 4, !tbaa !10
  %35 = call i32 (ptr, i64, ptr, ...) @snprintf(ptr noundef %31, i64 noundef %32, ptr noundef @.str.9, ptr noundef %33, i32 noundef %34) #15
  %36 = load ptr, ptr %9, align 8, !tbaa !34
  %37 = call noalias ptr @fopen(ptr noundef %36, ptr noundef @.str.10)
  store ptr %37, ptr %10, align 8, !tbaa !38
  %38 = load ptr, ptr %10, align 8, !tbaa !38
  %39 = icmp ne ptr %38, null
  br i1 %39, label %44, label %40

40:                                               ; preds = %30
  %41 = load ptr, ptr @stderr, align 8, !tbaa !38
  %42 = load ptr, ptr %9, align 8, !tbaa !34
  %43 = call i32 (ptr, ptr, ...) @fprintf(ptr noundef %41, ptr noundef @.str.11, ptr noundef %42) #15
  br label %126

44:                                               ; preds = %30
  store i32 0, ptr %12, align 4, !tbaa !10
  br label %45

45:                                               ; preds = %50, %44
  %46 = getelementptr inbounds [128 x i8], ptr %11, i64 0, i64 0
  %47 = load ptr, ptr %10, align 8, !tbaa !38
  %48 = call ptr @fgets(ptr noundef %46, i32 noundef 128, ptr noundef %47)
  %49 = icmp ne ptr %48, null
  br i1 %49, label %50, label %53

50:                                               ; preds = %45
  %51 = load i32, ptr %12, align 4, !tbaa !10
  %52 = add i32 %51, 1
  store i32 %52, ptr %12, align 4, !tbaa !10
  br label %45, !llvm.loop !101

53:                                               ; preds = %45
  %54 = load i32, ptr %12, align 4, !tbaa !10
  %55 = zext i32 %54 to i64
  %56 = mul i64 %55, 36
  %57 = call noalias ptr @malloc(i64 noundef %56) #17
  %58 = load ptr, ptr %6, align 8, !tbaa !88
  %59 = getelementptr inbounds nuw %struct.cpuiddump, ptr %58, i32 0, i32 1
  store ptr %57, ptr %59, align 8, !tbaa !102
  %60 = load ptr, ptr %6, align 8, !tbaa !88
  %61 = getelementptr inbounds nuw %struct.cpuiddump, ptr %60, i32 0, i32 1
  %62 = load ptr, ptr %61, align 8, !tbaa !102
  %63 = icmp ne ptr %62, null
  br i1 %63, label %69, label %64

64:                                               ; preds = %53
  %65 = load ptr, ptr @stderr, align 8, !tbaa !38
  %66 = load i32, ptr %12, align 4, !tbaa !10
  %67 = load i32, ptr %5, align 4, !tbaa !10
  %68 = call i32 (ptr, ptr, ...) @fprintf(ptr noundef %65, ptr noundef @.str.12, i32 noundef %66, i32 noundef %67) #15
  br label %123

69:                                               ; preds = %53
  %70 = load ptr, ptr %10, align 8, !tbaa !38
  %71 = call i32 @fseek(ptr noundef %70, i64 noundef 0, i32 noundef 0)
  %72 = load ptr, ptr %6, align 8, !tbaa !88
  %73 = getelementptr inbounds nuw %struct.cpuiddump, ptr %72, i32 0, i32 1
  %74 = load ptr, ptr %73, align 8, !tbaa !102
  %75 = getelementptr inbounds %struct.cpuiddump_entry, ptr %74, i64 0
  store ptr %75, ptr %7, align 8, !tbaa !105
  store i32 0, ptr %12, align 4, !tbaa !10
  br label %76

76:                                               ; preds = %114, %86, %69
  %77 = getelementptr inbounds [128 x i8], ptr %11, i64 0, i64 0
  %78 = load ptr, ptr %10, align 8, !tbaa !38
  %79 = call ptr @fgets(ptr noundef %77, i32 noundef 128, ptr noundef %78)
  %80 = icmp ne ptr %79, null
  br i1 %80, label %81, label %115

81:                                               ; preds = %76
  %82 = getelementptr inbounds [128 x i8], ptr %11, i64 0, i64 0
  %83 = load i8, ptr %82, align 16, !tbaa !83
  %84 = sext i8 %83 to i32
  %85 = icmp eq i32 %84, 35
  br i1 %85, label %86, label %87

86:                                               ; preds = %81
  br label %76, !llvm.loop !106

87:                                               ; preds = %81
  %88 = getelementptr inbounds [128 x i8], ptr %11, i64 0, i64 0
  %89 = load ptr, ptr %7, align 8, !tbaa !105
  %90 = getelementptr inbounds nuw %struct.cpuiddump_entry, ptr %89, i32 0, i32 0
  %91 = load ptr, ptr %7, align 8, !tbaa !105
  %92 = getelementptr inbounds nuw %struct.cpuiddump_entry, ptr %91, i32 0, i32 1
  %93 = load ptr, ptr %7, align 8, !tbaa !105
  %94 = getelementptr inbounds nuw %struct.cpuiddump_entry, ptr %93, i32 0, i32 2
  %95 = load ptr, ptr %7, align 8, !tbaa !105
  %96 = getelementptr inbounds nuw %struct.cpuiddump_entry, ptr %95, i32 0, i32 3
  %97 = load ptr, ptr %7, align 8, !tbaa !105
  %98 = getelementptr inbounds nuw %struct.cpuiddump_entry, ptr %97, i32 0, i32 4
  %99 = load ptr, ptr %7, align 8, !tbaa !105
  %100 = getelementptr inbounds nuw %struct.cpuiddump_entry, ptr %99, i32 0, i32 5
  %101 = load ptr, ptr %7, align 8, !tbaa !105
  %102 = getelementptr inbounds nuw %struct.cpuiddump_entry, ptr %101, i32 0, i32 6
  %103 = load ptr, ptr %7, align 8, !tbaa !105
  %104 = getelementptr inbounds nuw %struct.cpuiddump_entry, ptr %103, i32 0, i32 7
  %105 = load ptr, ptr %7, align 8, !tbaa !105
  %106 = getelementptr inbounds nuw %struct.cpuiddump_entry, ptr %105, i32 0, i32 8
  %107 = call i32 (ptr, ptr, ...) @__isoc99_sscanf(ptr noundef %88, ptr noundef @.str.13, ptr noundef %90, ptr noundef %92, ptr noundef %94, ptr noundef %96, ptr noundef %98, ptr noundef %100, ptr noundef %102, ptr noundef %104, ptr noundef %106) #15
  %108 = icmp eq i32 %107, 9
  br i1 %108, label %109, label %114

109:                                              ; preds = %87
  %110 = load ptr, ptr %7, align 8, !tbaa !105
  %111 = getelementptr inbounds nuw %struct.cpuiddump_entry, ptr %110, i32 1
  store ptr %111, ptr %7, align 8, !tbaa !105
  %112 = load i32, ptr %12, align 4, !tbaa !10
  %113 = add i32 %112, 1
  store i32 %113, ptr %12, align 4, !tbaa !10
  br label %114

114:                                              ; preds = %109, %87
  br label %76, !llvm.loop !106

115:                                              ; preds = %76
  %116 = load i32, ptr %12, align 4, !tbaa !10
  %117 = load ptr, ptr %6, align 8, !tbaa !88
  %118 = getelementptr inbounds nuw %struct.cpuiddump, ptr %117, i32 0, i32 0
  store i32 %116, ptr %118, align 8, !tbaa !107
  %119 = load ptr, ptr %10, align 8, !tbaa !38
  %120 = call i32 @fclose(ptr noundef %119)
  %121 = load ptr, ptr %9, align 8, !tbaa !34
  call void @free(ptr noundef %121) #15
  %122 = load ptr, ptr %6, align 8, !tbaa !88
  store ptr %122, ptr %3, align 8
  store i32 1, ptr %13, align 4
  br label %131

123:                                              ; preds = %64
  %124 = load ptr, ptr %10, align 8, !tbaa !38
  %125 = call i32 @fclose(ptr noundef %124)
  br label %126

126:                                              ; preds = %123, %40
  %127 = load ptr, ptr %9, align 8, !tbaa !34
  call void @free(ptr noundef %127) #15
  br label %128

128:                                              ; preds = %126, %29
  %129 = load ptr, ptr %6, align 8, !tbaa !88
  call void @free(ptr noundef %129) #15
  br label %130

130:                                              ; preds = %128, %17
  store ptr null, ptr %3, align 8
  store i32 1, ptr %13, align 4
  br label %131

131:                                              ; preds = %130, %115
  call void @llvm.lifetime.end.p0(i64 4, ptr %12) #15
  call void @llvm.lifetime.end.p0(i64 128, ptr %11) #15
  call void @llvm.lifetime.end.p0(i64 8, ptr %10) #15
  call void @llvm.lifetime.end.p0(i64 8, ptr %9) #15
  call void @llvm.lifetime.end.p0(i64 8, ptr %8) #15
  call void @llvm.lifetime.end.p0(i64 8, ptr %7) #15
  call void @llvm.lifetime.end.p0(i64 8, ptr %6) #15
  %132 = load ptr, ptr %3, align 8
  ret ptr %132
}