; Function Attrs: nounwind uwtable
define internal fastcc noalias noundef ptr @cpuiddump_read(ptr noundef nonnull %0, i32 noundef %1) unnamed_addr #0 {
  %3 = alloca [128 x i8], align 16
  call void @llvm.lifetime.start.p0(i64 128, ptr nonnull %3) #22
  %4 = tail call noalias dereferenceable_or_null(16) ptr @malloc(i64 noundef 16) #24
  %.not = icmp eq ptr %4, null
  br i1 %.not, label %5, label %8

5:                                                ; preds = %2
  %6 = load ptr, ptr @stderr, align 8, !tbaa !22
  %7 = tail call i32 (ptr, ptr, ...) @fprintf(ptr noundef %6, ptr noundef nonnull @.str.8, i32 noundef %1) #25
  br label %52

8:                                                ; preds = %2
  %9 = tail call i64 @strlen(ptr noundef nonnull dereferenceable(1) %0) #23
  %10 = add i64 %9, 15
  %11 = tail call noalias ptr @malloc(i64 noundef %10) #24
  %.not47 = icmp eq ptr %11, null
  br i1 %.not47, label %51, label %12

12:                                               ; preds = %8
  %13 = tail call i32 (ptr, i64, ptr, ...) @snprintf(ptr noundef nonnull %11, i64 noundef %10, ptr noundef nonnull @.str.9, ptr noundef nonnull %0, i32 noundef %1) #22
  %14 = tail call noalias ptr @fopen(ptr noundef nonnull %11, ptr noundef nonnull @.str.10)
  %.not48 = icmp eq ptr %14, null
  br i1 %.not48, label %15, label %.preheader

15:                                               ; preds = %12
  %16 = load ptr, ptr @stderr, align 8, !tbaa !22
  %17 = tail call i32 (ptr, ptr, ...) @fprintf(ptr noundef %16, ptr noundef nonnull @.str.11, ptr noundef nonnull %11) #25
  br label %50

.preheader:                                       ; preds = %12, %.preheader
  %.0 = phi i32 [ %19, %.preheader ], [ 0, %12 ]
  %18 = call ptr @fgets(ptr noundef nonnull %3, i32 noundef 128, ptr noundef nonnull %14)
  %.not49 = icmp eq ptr %18, null
  %19 = add i32 %.0, 1
  br i1 %.not49, label %20, label %.preheader, !llvm.loop !102

20:                                               ; preds = %.preheader
  %21 = zext i32 %.0 to i64
  %22 = mul nuw nsw i64 %21, 36
  %23 = call noalias ptr @malloc(i64 noundef %22) #24
  %24 = getelementptr inbounds nuw i8, ptr %4, i64 8
  store ptr %23, ptr %24, align 8, !tbaa !75
  %.not50 = icmp eq ptr %23, null
  br i1 %.not50, label %25, label %29

25:                                               ; preds = %20
  %26 = load ptr, ptr @stderr, align 8, !tbaa !22
  %27 = call i32 (ptr, ptr, ...) @fprintf(ptr noundef %26, ptr noundef nonnull @.str.12, i32 noundef %.0, i32 noundef %1) #25
  %28 = call i32 @fclose(ptr noundef nonnull %14)
  br label %50

29:                                               ; preds = %20
  %30 = call i32 @fseek(ptr noundef nonnull %14, i64 noundef 0, i32 noundef 0)
  br label %.outer

.outer:                                           ; preds = %36, %29
  %.042.ph = phi ptr [ %.143, %36 ], [ %23, %29 ]
  %.1.ph = phi i32 [ %.2, %36 ], [ 0, %29 ]
  br label %31

31:                                               ; preds = %.outer, %33
  %32 = call ptr @fgets(ptr noundef nonnull %3, i32 noundef 128, ptr noundef nonnull %14)
  %.not51 = icmp eq ptr %32, null
  br i1 %.not51, label %48, label %33

33:                                               ; preds = %31
  %34 = load i8, ptr %3, align 16, !tbaa !25
  %35 = icmp eq i8 %34, 35
  br i1 %35, label %31, label %36, !llvm.loop !103

36:                                               ; preds = %33
  %37 = getelementptr inbounds nuw i8, ptr %.042.ph, i64 4
  %38 = getelementptr inbounds nuw i8, ptr %.042.ph, i64 8
  %39 = getelementptr inbounds nuw i8, ptr %.042.ph, i64 12
  %40 = getelementptr inbounds nuw i8, ptr %.042.ph, i64 16
  %41 = getelementptr inbounds nuw i8, ptr %.042.ph, i64 20
  %42 = getelementptr inbounds nuw i8, ptr %.042.ph, i64 24
  %43 = getelementptr inbounds nuw i8, ptr %.042.ph, i64 28
  %44 = getelementptr inbounds nuw i8, ptr %.042.ph, i64 32
  %45 = call i32 (ptr, ptr, ...) @__isoc99_sscanf(ptr noundef nonnull %3, ptr noundef nonnull @.str.13, ptr noundef %.042.ph, ptr noundef nonnull %37, ptr noundef nonnull %38, ptr noundef nonnull %39, ptr noundef nonnull %40, ptr noundef nonnull %41, ptr noundef nonnull %42, ptr noundef nonnull %43, ptr noundef nonnull %44) #22
  %46 = icmp eq i32 %45, 9
  %.143.idx = select i1 %46, i64 36, i64 0
  %.143 = getelementptr inbounds nuw i8, ptr %.042.ph, i64 %.143.idx
  %47 = zext i1 %46 to i32
  %.2 = add i32 %.1.ph, %47
  br label %.outer, !llvm.loop !103

48:                                               ; preds = %31
  store i32 %.1.ph, ptr %4, align 8, !tbaa !72
  %49 = call i32 @fclose(ptr noundef nonnull %14)
  call void @free(ptr noundef %11) #22
  br label %52

50:                                               ; preds = %25, %15
  call void @free(ptr noundef %11) #22
  br label %51

51:                                               ; preds = %8, %50
  call void @free(ptr noundef nonnull %4) #22
  br label %52

52:                                               ; preds = %5, %51, %48
  %.041 = phi ptr [ %4, %48 ], [ null, %51 ], [ null, %5 ]
  call void @llvm.lifetime.end.p0(i64 128, ptr nonnull %3) #22
  ret ptr %.041
}